target datalayout = "e-m:e-p270:32:32-p271:32:32-p272:64:64-i64:64-i128:128-f80:128-n8:16:32:64-S128"
target triple = "x86_64-pc-linux-gnu"

%struct._lv_label_t = type { %struct._lv_obj_t, ptr, [4 x i8], i32, %struct._lv_draw_label_hint_t, i32, i32, %struct.lv_point_t, %struct.lv_point_t, i8 }
%struct._lv_obj_t = type { ptr, ptr, ptr, ptr, ptr, %struct.lv_area_t, i32, i16, i16 }
%struct.lv_area_t = type { i32, i32, i32, i32 }
%struct._lv_draw_label_hint_t = type { i32, i32, i32 }
%struct.lv_point_t = type { i32, i32 }

@lv_text_get_encoded_length = external constant ptr, align 8

; Function Attrs: nounwind uwtable
define void @lv_label_ins_text(ptr noundef %0, i32 noundef %1, ptr noundef %2) #0 {
  %4 = alloca ptr, align 8
  %5 = alloca i32, align 4
  %6 = alloca ptr, align 8
  %7 = alloca ptr, align 8
  %8 = alloca i32, align 4
  %9 = alloca i64, align 8
  %10 = alloca i64, align 8
  %11 = alloca i64, align 8
  store ptr %0, ptr %4, align 8, !tbaa !3
  store i32 %1, ptr %5, align 4, !tbaa !21
  store ptr %2, ptr %6, align 8, !tbaa !3
  br label %12

12:                                               ; preds = %3
  br label %13

13:                                               ; preds = %12
  br label %14

14:                                               ; preds = %13
  %15 = load ptr, ptr %6, align 8, !tbaa !3
  %16 = icmp ne ptr %15, null
  br i1 %16, label %21, label %17

17:                                               ; preds = %14
  br label %18

18:                                               ; preds = %17
  br label %19

19:                                               ; preds = %18
  br label %20

20:                                               ; preds = %19, %20
  br label %20

21:                                               ; preds = %14
  br label %22

22:                                               ; preds = %21
  call void @llvm.lifetime.start.p0(i64 8, ptr %7) #6
  %23 = load ptr, ptr %4, align 8, !tbaa !3
  store ptr %23, ptr %7, align 8, !tbaa !3
  %24 = load ptr, ptr %7, align 8, !tbaa !3
  %25 = getelementptr inbounds nuw %struct._lv_label_t, ptr %24, i32 0, i32 9
  %26 = load i8, ptr %25, align 4
  %27 = lshr i8 %26, 3
  %28 = and i8 %27, 1
  %29 = zext i8 %28 to i32
  %30 = icmp ne i32 %29, 0
  br i1 %30, label %31, label %32

31:                                               ; preds = %22
  store i32 1, ptr %8, align 4
  br label %87

32:                                               ; preds = %22
  %33 = load ptr, ptr %4, align 8, !tbaa !3
  call void @lv_obj_invalidate(ptr noundef %33)
  call void @llvm.lifetime.start.p0(i64 8, ptr %9) #6
  %34 = load ptr, ptr %7, align 8, !tbaa !3
  %35 = getelementptr inbounds nuw %struct._lv_label_t, ptr %34, i32 0, i32 1
  %36 = load ptr, ptr %35, align 8, !tbaa !7
  %37 = call i64 @lv_strlen(ptr noundef %36)
  store i64 %37, ptr %9, align 8, !tbaa !26
  call void @llvm.lifetime.start.p0(i64 8, ptr %10) #6
  %38 = load ptr, ptr %6, align 8, !tbaa !3
  %39 = call i64 @lv_strlen(ptr noundef %38)
  store i64 %39, ptr %10, align 8, !tbaa !26
  call void @llvm.lifetime.start.p0(i64 8, ptr %11) #6
  %40 = load i64, ptr %10, align 8, !tbaa !26
  %41 = load i64, ptr %9, align 8, !tbaa !26
  %42 = add i64 %40, %41
  store i64 %42, ptr %11, align 8, !tbaa !26
  %43 = load ptr, ptr %7, align 8, !tbaa !3
  %44 = getelementptr inbounds nuw %struct._lv_label_t, ptr %43, i32 0, i32 1
  %45 = load ptr, ptr %44, align 8, !tbaa !7
  %46 = load i64, ptr %11, align 8, !tbaa !26
  %47 = add i64 %46, 1
  %48 = call ptr @lv_realloc(ptr noundef %45, i64 noundef %47)
  %49 = load ptr, ptr %7, align 8, !tbaa !3
  %50 = getelementptr inbounds nuw %struct._lv_label_t, ptr %49, i32 0, i32 1
  store ptr %48, ptr %50, align 8, !tbaa !7
  br label %51

51:                                               ; preds = %32
  %52 = load ptr, ptr %7, align 8, !tbaa !3
  %53 = getelementptr inbounds nuw %struct._lv_label_t, ptr %52, i32 0, i32 1
  %54 = load ptr, ptr %53, align 8, !tbaa !7
  %55 = icmp ne ptr %54, null
  br i1 %55, label %62, label %56

56:                                               ; preds = %51
  br label %57

57:                                               ; preds = %56
  br label %58

58:                                               ; preds = %57
  br label %59

59:                                               ; preds = %58
  br label %60

60:                                               ; preds = %61, %59
  br label %61

61:                                               ; preds = %60
  br label %60

62:                                               ; preds = %51
  br label %63

63:                                               ; preds = %62
  br label %64

64:                                               ; preds = %63
  %65 = load ptr, ptr %7, align 8, !tbaa !3
  %66 = getelementptr inbounds nuw %struct._lv_label_t, ptr %65, i32 0, i32 1
  %67 = load ptr, ptr %66, align 8, !tbaa !7
  %68 = icmp eq ptr %67, null
  br i1 %68, label %69, label %70

69:                                               ; preds = %64
  store i32 1, ptr %8, align 4
  br label %86

70:                                               ; preds = %64
  %71 = load i32, ptr %5, align 4, !tbaa !21
  %72 = icmp eq i32 %71, 65535
  br i1 %72, label %73, label %79

73:                                               ; preds = %70
  %74 = load ptr, ptr @lv_text_get_encoded_length, align 8, !tbaa !3
  %75 = load ptr, ptr %7, align 8, !tbaa !3
  %76 = getelementptr inbounds nuw %struct._lv_label_t, ptr %75, i32 0, i32 1
  %77 = load ptr, ptr %76, align 8, !tbaa !7
  %78 = call i32 %74(ptr noundef %77)
  store i32 %78, ptr %5, align 4, !tbaa !21
  br label %79

79:                                               ; preds = %73, %70
  %80 = load ptr, ptr %7, align 8, !tbaa !3
  %81 = getelementptr inbounds nuw %struct._lv_label_t, ptr %80, i32 0, i32 1
  %82 = load ptr, ptr %81, align 8, !tbaa !7
  %83 = load i32, ptr %5, align 4, !tbaa !21
  %84 = load ptr, ptr %6, align 8, !tbaa !3
  call void @lv_text_ins(ptr noundef %82, i32 noundef %83, ptr noundef %84)
  %85 = load ptr, ptr %4, align 8, !tbaa !3
  call void @lv_label_set_text(ptr noundef %85, ptr noundef null)
  store i32 0, ptr %8, align 4
  br label %86

86:                                               ; preds = %79, %69
  call void @llvm.lifetime.end.p0(i64 8, ptr %11) #6
  call void @llvm.lifetime.end.p0(i64 8, ptr %10) #6
  call void @llvm.lifetime.end.p0(i64 8, ptr %9) #6
  br label %87

87:                                               ; preds = %86, %31
  call void @llvm.lifetime.end.p0(i64 8, ptr %7) #6
  %88 = load i32, ptr %8, align 4
  switch i32 %88, label %90 [
    i32 0, label %89
    i32 1, label %89
  ]

89:                                               ; preds = %87, %87
  ret void

90:                                               ; preds = %87
  unreachable
}