; Function Attrs: nounwind uwtable
define void @lv_label_ins_text(ptr noundef %0, i32 noundef %1, ptr noundef %2) local_unnamed_addr #0 {
  %.not = icmp eq ptr %2, null
  br i1 %.not, label %.preheader, label %4

.preheader:                                       ; preds = %3, %.preheader
  br label %.preheader

4:                                                ; preds = %3
  %5 = getelementptr inbounds nuw i8, ptr %0, i64 116
  %6 = load i8, ptr %5, align 4
  %7 = and i8 %6, 8
  %.not21 = icmp eq i8 %7, 0
  br i1 %.not21, label %8, label %24

8:                                                ; preds = %4
  tail call void @lv_obj_invalidate(ptr noundef nonnull %0) #7
  %9 = getelementptr inbounds nuw i8, ptr %0, i64 64
  %10 = load ptr, ptr %9, align 8, !tbaa !3
  %11 = tail call i64 @lv_strlen(ptr noundef %10) #7
  %12 = tail call i64 @lv_strlen(ptr noundef nonnull %2) #7
  %13 = load ptr, ptr %9, align 8, !tbaa !3
  %14 = add i64 %11, 1
  %15 = add i64 %14, %12
  %16 = tail call ptr @lv_realloc(ptr noundef %13, i64 noundef %15) #7
  store ptr %16, ptr %9, align 8, !tbaa !3
  %.not22 = icmp eq ptr %16, null
  br i1 %.not22, label %.preheader23, label %17

.preheader23:                                     ; preds = %8, %.preheader23
  br label %.preheader23

17:                                               ; preds = %8
  %18 = icmp eq i32 %1, 65535
  br i1 %18, label %19, label %22

19:                                               ; preds = %17
  %20 = load ptr, ptr @lv_text_get_encoded_length, align 8, !tbaa !58
  %21 = tail call i32 %20(ptr noundef nonnull %16) #7
  %.pre = load ptr, ptr %9, align 8, !tbaa !3
  br label %22

22:                                               ; preds = %19, %17
  %23 = phi ptr [ %.pre, %19 ], [ %16, %17 ]
  %.0 = phi i32 [ %21, %19 ], [ %1, %17 ]
  tail call void @lv_text_ins(ptr noundef %23, i32 noundef %.0, ptr noundef nonnull %2) #7
  tail call void @lv_label_set_text(ptr noundef nonnull %0, ptr noundef null)
  br label %24

24:                                               ; preds = %4, %22
  ret void
}